; Function Attrs: mustprogress uwtable
define void @_ZNK22colvarbias_reweightaMD33compute_cumulant_expansion_factorEPK18colvar_grid_scalarS2_S2_PS0_(ptr nocapture noundef nonnull readnone align 8 dereferenceable(552) %0, ptr nocapture noundef readonly %1, ptr nocapture noundef readonly %2, ptr nocapture noundef readonly %3, ptr nocapture noundef readonly %4) local_unnamed_addr #4 align 2 {
  %6 = tail call noundef ptr @_ZN12colvarmodule4mainEv()
  %7 = load ptr, ptr @_ZN12colvarmodule5proxyE, align 8
  %8 = getelementptr inbounds i8, ptr %7, i64 64
  %9 = load double, ptr %8, align 8
  %10 = getelementptr inbounds i8, ptr %7, i64 72
  %11 = load double, ptr %10, align 8
  %12 = fmul double %9, %11
  %13 = fdiv double 1.000000e+00, %12
  %14 = getelementptr inbounds i8, ptr %1, i64 392
  %15 = getelementptr inbounds i8, ptr %1, i64 400
  %16 = load ptr, ptr %15, align 8
  %17 = load ptr, ptr %14, align 8
  %.not = icmp eq ptr %16, %17
  br i1 %.not, label %._crit_edge, label %.lr.ph

.lr.ph:                                           ; preds = %5
  %18 = getelementptr inbounds i8, ptr %3, i64 392
  %19 = getelementptr inbounds i8, ptr %2, i64 392
  %20 = fmul double %13, 5.000000e-01
  %21 = fmul double %13, %20
  %22 = getelementptr inbounds i8, ptr %4, i64 392
  br label %23

23:                                               ; preds = %.lr.ph, %45
  %24 = phi ptr [ %17, %.lr.ph ], [ %46, %45 ]
  %25 = phi ptr [ %16, %.lr.ph ], [ %47, %45 ]
  %.024 = phi i64 [ 0, %.lr.ph ], [ %48, %45 ]
  %26 = load ptr, ptr %18, align 8
  %27 = getelementptr inbounds double, ptr %26, i64 %.024
  %28 = load double, ptr %27, align 8
  %29 = fcmp ogt double %28, 0.000000e+00
  br i1 %29, label %30, label %45

30:                                               ; preds = %23
  %31 = getelementptr inbounds double, ptr %24, i64 %.024
  %32 = load double, ptr %31, align 8
  %33 = fdiv double %32, %28
  %34 = load ptr, ptr %19, align 8
  %35 = getelementptr inbounds double, ptr %34, i64 %.024
  %36 = load double, ptr %35, align 8
  %37 = fdiv double %36, %28
  %38 = fneg double %33
  %39 = tail call double @llvm.fmuladd.f64(double %38, double %33, double %37)
  %40 = fmul double %21, %39
  %41 = tail call double @llvm.fmuladd.f64(double %13, double %33, double %40)
  %42 = tail call noundef double @exp(double noundef %41) #17
  %43 = load ptr, ptr %22, align 8
  %44 = getelementptr inbounds double, ptr %43, i64 %.024
  store double %42, ptr %44, align 8
  %.pre = load ptr, ptr %15, align 8
  %.pre25 = load ptr, ptr %14, align 8
  br label %45

45:                                               ; preds = %23, %30
  %46 = phi ptr [ %24, %23 ], [ %.pre25, %30 ]
  %47 = phi ptr [ %25, %23 ], [ %.pre, %30 ]
  %48 = add nuw i64 %.024, 1
  %49 = ptrtoint ptr %47 to i64
  %50 = ptrtoint ptr %46 to i64
  %51 = sub i64 %49, %50
  %52 = ashr exact i64 %51, 3
  %53 = icmp ult i64 %48, %52
  br i1 %53, label %23, label %._crit_edge, !llvm.loop !19

._crit_edge:                                      ; preds = %45, %5
  ret void
}